target datalayout = "e-m:e-p270:32:32-p271:32:32-p272:64:64-i64:64-i128:128-f80:128-n8:16:32:64-S128"
target triple = "x86_64-pc-linux-gnu"

%struct.extent_hooks_s = type { ptr, ptr, ptr, ptr, ptr, ptr, ptr, ptr, ptr }
%struct.edata_s = type { i64, ptr, %union.anon, ptr, i64, %union.anon.0, %union.anon.2 }
%union.anon = type { i64 }
%union.anon.0 = type { %union.anon.1 }
%union.anon.1 = type { %struct.edata_heap_link_t }
%struct.edata_heap_link_t = type { %struct.phn_link_s }
%struct.phn_link_s = type { ptr, ptr, ptr }
%union.anon.2 = type { %struct.slab_data_s }
%struct.slab_data_s = type { [8 x i64] }
%struct.ehooks_s = type { i32, %struct.atomic_p_t }
%struct.atomic_p_t = type { ptr }

@je_ehooks_default_extent_hooks = external constant %struct.extent_hooks_s, align 8

; Function Attrs: alwaysinline nounwind uwtable
define internal i32 @atomic_enum_to_builtin(i32 noundef %0) #5 {
  %2 = alloca i32, align 4
  %3 = alloca i32, align 4
  store i32 %0, ptr %3, align 4, !tbaa !34
  %4 = load i32, ptr %3, align 4, !tbaa !34
  switch i32 %4, label %10 [
    i32 0, label %5
    i32 1, label %6
    i32 2, label %7
    i32 3, label %8
    i32 4, label %9
  ]

5:                                                ; preds = %1
  store i32 0, ptr %2, align 4
  br label %12

6:                                                ; preds = %1
  store i32 2, ptr %2, align 4
  br label %12

7:                                                ; preds = %1
  store i32 3, ptr %2, align 4
  br label %12

8:                                                ; preds = %1
  store i32 4, ptr %2, align 4
  br label %12

9:                                                ; preds = %1
  store i32 5, ptr %2, align 4
  br label %12

10:                                               ; preds = %1
  br label %11

11:                                               ; preds = %10
  unreachable

12:                                               ; preds = %5, %6, %7, %8, %9
  %13 = load i32, ptr %2, align 4
  ret i32 %13
}

; Function Attrs: alwaysinline nounwind uwtable
define internal ptr @atomic_load_p(ptr noundef %0, i32 noundef %1) #5 {
  %3 = alloca ptr, align 8
  %4 = alloca i32, align 4
  %5 = alloca ptr, align 8
  store ptr %0, ptr %3, align 8, !tbaa !21
  store i32 %1, ptr %4, align 4, !tbaa !34
  call void @llvm.lifetime.start.p0(i64 8, ptr %5) #6
  %6 = load ptr, ptr %3, align 8, !tbaa !21
  %7 = getelementptr inbounds nuw %struct.atomic_p_t, ptr %6, i32 0, i32 0
  %8 = load i32, ptr %4, align 4, !tbaa !34
  %9 = call i32 @atomic_enum_to_builtin(i32 noundef %8)
  switch i32 %9, label %10 [
    i32 1, label %12
    i32 2, label %12
    i32 5, label %14
  ]

10:                                               ; preds = %2
  %11 = load atomic i64, ptr %7 monotonic, align 8
  store i64 %11, ptr %5, align 8
  br label %16

12:                                               ; preds = %2, %2
  %13 = load atomic i64, ptr %7 acquire, align 8
  store i64 %13, ptr %5, align 8
  br label %16

14:                                               ; preds = %2
  %15 = load atomic i64, ptr %7 seq_cst, align 8
  store i64 %15, ptr %5, align 8
  br label %16

16:                                               ; preds = %14, %12, %10
  %17 = load ptr, ptr %5, align 8, !tbaa !21
  call void @llvm.lifetime.end.p0(i64 8, ptr %5) #6
  ret ptr %17
}

; Function Attrs: inlinehint nounwind uwtable
define internal ptr @ehooks_get_extent_hooks_ptr(ptr noundef %0) #3 {
  %2 = alloca ptr, align 8
  store ptr %0, ptr %2, align 8, !tbaa !9
  %3 = load ptr, ptr %2, align 8, !tbaa !9
  %4 = getelementptr inbounds nuw %struct.ehooks_s, ptr %3, i32 0, i32 1
  %5 = call ptr @atomic_load_p(ptr noundef %4, i32 noundef 1)
  ret ptr %5
}

; Function Attrs: inlinehint nounwind uwtable
define internal ptr @edata_base_get(ptr noundef %0) #3 {
  %2 = alloca ptr, align 8
  store ptr %0, ptr %2, align 8, !tbaa !11
  br label %3

3:                                                ; preds = %1
  br label %4

4:                                                ; preds = %3
  %5 = load ptr, ptr %2, align 8, !tbaa !11
  %6 = getelementptr inbounds nuw %struct.edata_s, ptr %5, i32 0, i32 1
  %7 = load ptr, ptr %6, align 8, !tbaa !25
  %8 = load ptr, ptr %2, align 8, !tbaa !11
  %9 = getelementptr inbounds nuw %struct.edata_s, ptr %8, i32 0, i32 1
  %10 = load ptr, ptr %9, align 8, !tbaa !25
  %11 = ptrtoint ptr %10 to i64
  %12 = load ptr, ptr %2, align 8, !tbaa !11
  %13 = getelementptr inbounds nuw %struct.edata_s, ptr %12, i32 0, i32 1
  %14 = load ptr, ptr %13, align 8, !tbaa !25
  %15 = ptrtoint ptr %14 to i64
  %16 = and i64 %15, -4096
  %17 = sub i64 %11, %16
  %18 = sub i64 0, %17
  %19 = getelementptr inbounds i8, ptr %7, i64 %18
  ret ptr %19
}

; Function Attrs: inlinehint nounwind uwtable
define internal void @edata_guarded_set(ptr noundef %0, i1 noundef zeroext %1) #3 {
  %3 = alloca ptr, align 8
  %4 = alloca i8, align 1
  store ptr %0, ptr %3, align 8, !tbaa !11
  %5 = zext i1 %1 to i8
  store i8 %5, ptr %4, align 1, !tbaa !15
  %6 = load ptr, ptr %3, align 8, !tbaa !11
  %7 = getelementptr inbounds nuw %struct.edata_s, ptr %6, i32 0, i32 0
  %8 = load i64, ptr %7, align 8, !tbaa !28
  %9 = and i64 %8, -65537
  %10 = load i8, ptr %4, align 1, !tbaa !15, !range !17, !noundef !18
  %11 = trunc i8 %10 to i1
  %12 = zext i1 %11 to i64
  %13 = shl i64 %12, 16
  %14 = or i64 %9, %13
  %15 = load ptr, ptr %3, align 8, !tbaa !11
  %16 = getelementptr inbounds nuw %struct.edata_s, ptr %15, i32 0, i32 0
  store i64 %14, ptr %16, align 8, !tbaa !28
  ret void
}

; Function Attrs: inlinehint nounwind uwtable
define internal void @edata_addr_set(ptr noundef %0, ptr noundef %1) #3 {
  %3 = alloca ptr, align 8
  %4 = alloca ptr, align 8
  store ptr %0, ptr %3, align 8, !tbaa !11
  store ptr %1, ptr %4, align 8, !tbaa !21
  %5 = load ptr, ptr %4, align 8, !tbaa !21
  %6 = load ptr, ptr %3, align 8, !tbaa !11
  %7 = getelementptr inbounds nuw %struct.edata_s, ptr %6, i32 0, i32 1
  store ptr %5, ptr %7, align 8, !tbaa !25
  ret void
}

; Function Attrs: inlinehint nounwind uwtable
define internal void @edata_size_set(ptr noundef %0, i64 noundef %1) #3 {
  %3 = alloca ptr, align 8
  %4 = alloca i64, align 8
  store ptr %0, ptr %3, align 8, !tbaa !11
  store i64 %1, ptr %4, align 8, !tbaa !19
  br label %5

5:                                                ; preds = %2
  br label %6

6:                                                ; preds = %5
  %7 = load i64, ptr %4, align 8, !tbaa !19
  %8 = load ptr, ptr %3, align 8, !tbaa !11
  %9 = getelementptr inbounds nuw %struct.edata_s, ptr %8, i32 0, i32 2
  %10 = load i64, ptr %9, align 8, !tbaa !22
  %11 = and i64 %10, 4095
  %12 = or i64 %7, %11
  %13 = load ptr, ptr %3, align 8, !tbaa !11
  %14 = getelementptr inbounds nuw %struct.edata_s, ptr %13, i32 0, i32 2
  store i64 %12, ptr %14, align 8, !tbaa !22
  ret void
}

; Function Attrs: inlinehint nounwind uwtable
define internal zeroext i1 @ehooks_unguard(ptr noundef %0, ptr noundef %1, ptr noundef %2, ptr noundef %3) #3 {
  %5 = alloca ptr, align 8
  %6 = alloca ptr, align 8
  %7 = alloca ptr, align 8
  %8 = alloca ptr, align 8
  %9 = alloca i8, align 1
  %10 = alloca ptr, align 8
  store ptr %0, ptr %5, align 8, !tbaa !4
  store ptr %1, ptr %6, align 8, !tbaa !9
  store ptr %2, ptr %7, align 8, !tbaa !21
  store ptr %3, ptr %8, align 8, !tbaa !21
  call void @llvm.lifetime.start.p0(i64 1, ptr %9) #6
  call void @llvm.lifetime.start.p0(i64 8, ptr %10) #6
  %11 = load ptr, ptr %6, align 8, !tbaa !9
  %12 = call ptr @ehooks_get_extent_hooks_ptr(ptr noundef %11)
  store ptr %12, ptr %10, align 8, !tbaa !23
  %13 = load ptr, ptr %10, align 8, !tbaa !23
  %14 = icmp eq ptr %13, @je_ehooks_default_extent_hooks
  br i1 %14, label %15, label %18

15:                                               ; preds = %4
  %16 = load ptr, ptr %7, align 8, !tbaa !21
  %17 = load ptr, ptr %8, align 8, !tbaa !21
  call void @je_ehooks_default_unguard_impl(ptr noundef %16, ptr noundef %17)
  store i8 0, ptr %9, align 1, !tbaa !15
  br label %19

18:                                               ; preds = %4
  store i8 1, ptr %9, align 1, !tbaa !15
  br label %19

19:                                               ; preds = %18, %15
  %20 = load i8, ptr %9, align 1, !tbaa !15, !range !17, !noundef !18
  %21 = trunc i8 %20 to i1
  call void @llvm.lifetime.end.p0(i64 8, ptr %10) #6
  call void @llvm.lifetime.end.p0(i64 1, ptr %9) #6
  ret i1 %21
}

; Function Attrs: inlinehint nounwind uwtable
define internal void @san_find_unguarded_addr(ptr noundef %0, ptr noundef %1, ptr noundef %2, ptr noundef %3, i64 noundef %4, i1 noundef zeroext %5, i1 noundef zeroext %6) #3 {
  %8 = alloca ptr, align 8
  %9 = alloca ptr, align 8
  %10 = alloca ptr, align 8
  %11 = alloca ptr, align 8
  %12 = alloca i64, align 8
  %13 = alloca i8, align 1
  %14 = alloca i8, align 1
  store ptr %0, ptr %8, align 8, !tbaa !11
  store ptr %1, ptr %9, align 8, !tbaa !21
  store ptr %2, ptr %10, align 8, !tbaa !21
  store ptr %3, ptr %11, align 8, !tbaa !21
  store i64 %4, ptr %12, align 8, !tbaa !19
  %15 = zext i1 %5 to i8
  store i8 %15, ptr %13, align 1, !tbaa !15
  %16 = zext i1 %6 to i8
  store i8 %16, ptr %14, align 1, !tbaa !15
  br label %17

17:                                               ; preds = %7
  br label %18

18:                                               ; preds = %17
  br label %19

19:                                               ; preds = %18
  br label %20

20:                                               ; preds = %19
  %21 = load ptr, ptr %8, align 8, !tbaa !11
  %22 = call ptr @edata_base_get(ptr noundef %21)
  %23 = load ptr, ptr %11, align 8, !tbaa !21
  store ptr %22, ptr %23, align 8, !tbaa !21
  %24 = load i8, ptr %14, align 1, !tbaa !15, !range !17, !noundef !18
  %25 = trunc i8 %24 to i1
  br i1 %25, label %26, label %32

26:                                               ; preds = %20
  %27 = load ptr, ptr %11, align 8, !tbaa !21
  %28 = load ptr, ptr %27, align 8, !tbaa !21
  %29 = load i64, ptr %12, align 8, !tbaa !19
  %30 = getelementptr inbounds nuw i8, ptr %28, i64 %29
  %31 = load ptr, ptr %10, align 8, !tbaa !21
  store ptr %30, ptr %31, align 8, !tbaa !21
  br label %34

32:                                               ; preds = %20
  %33 = load ptr, ptr %10, align 8, !tbaa !21
  store ptr null, ptr %33, align 8, !tbaa !21
  br label %34

34:                                               ; preds = %32, %26
  %35 = load i8, ptr %13, align 1, !tbaa !15, !range !17, !noundef !18
  %36 = trunc i8 %35 to i1
  br i1 %36, label %37, label %47

37:                                               ; preds = %34
  %38 = load ptr, ptr %11, align 8, !tbaa !21
  %39 = load ptr, ptr %38, align 8, !tbaa !21
  %40 = getelementptr inbounds i8, ptr %39, i64 -4096
  %41 = load ptr, ptr %9, align 8, !tbaa !21
  store ptr %40, ptr %41, align 8, !tbaa !21
  br label %42

42:                                               ; preds = %37
  br label %43

43:                                               ; preds = %42
  %44 = load ptr, ptr %9, align 8, !tbaa !21
  %45 = load ptr, ptr %44, align 8, !tbaa !21
  %46 = load ptr, ptr %11, align 8, !tbaa !21
  store ptr %45, ptr %46, align 8, !tbaa !21
  br label %49

47:                                               ; preds = %34
  %48 = load ptr, ptr %9, align 8, !tbaa !21
  store ptr null, ptr %48, align 8, !tbaa !21
  br label %49

49:                                               ; preds = %47, %43
  ret void
}

; Function Attrs: inlinehint nounwind uwtable
define internal i64 @san_one_side_guarded_sz(i64 noundef %0) #3 {
  %2 = alloca i64, align 8
  store i64 %0, ptr %2, align 8, !tbaa !19
  br label %3

3:                                                ; preds = %1
  br label %4

4:                                                ; preds = %3
  %5 = load i64, ptr %2, align 8, !tbaa !19
  %6 = add i64 %5, 4096
  ret i64 %6
}

; Function Attrs: inlinehint nounwind uwtable
define internal i64 @san_two_side_guarded_sz(i64 noundef %0) #3 {
  %2 = alloca i64, align 8
  store i64 %0, ptr %2, align 8, !tbaa !19
  br label %3

3:                                                ; preds = %1
  br label %4

4:                                                ; preds = %3
  %5 = load i64, ptr %2, align 8, !tbaa !19
  %6 = add i64 %5, 8192
  ret i64 %6
}

; Function Attrs: inlinehint nounwind uwtable
define internal i64 @edata_size_get(ptr noundef %0) #3 {
  %2 = alloca ptr, align 8
  store ptr %0, ptr %2, align 8, !tbaa !11
  %3 = load ptr, ptr %2, align 8, !tbaa !11
  %4 = getelementptr inbounds nuw %struct.edata_s, ptr %3, i32 0, i32 2
  %5 = load i64, ptr %4, align 8, !tbaa !22
  %6 = and i64 %5, -4096
  ret i64 %6
}

; Function Attrs: nounwind uwtable
define internal void @san_unguard_pages_impl(ptr noundef %0, ptr noundef %1, ptr noundef %2, ptr noundef %3, i1 noundef zeroext %4, i1 noundef zeroext %5, i1 noundef zeroext %6) #0 {
  %8 = alloca ptr, align 8
  %9 = alloca ptr, align 8
  %10 = alloca ptr, align 8
  %11 = alloca ptr, align 8
  %12 = alloca i8, align 1
  %13 = alloca i8, align 1
  %14 = alloca i8, align 1
  %15 = alloca i64, align 8
  %16 = alloca i64, align 8
  %17 = alloca ptr, align 8
  %18 = alloca ptr, align 8
  %19 = alloca ptr, align 8
  store ptr %0, ptr %8, align 8, !tbaa !4
  store ptr %1, ptr %9, align 8, !tbaa !9
  store ptr %2, ptr %10, align 8, !tbaa !11
  store ptr %3, ptr %11, align 8, !tbaa !13
  %20 = zext i1 %4 to i8
  store i8 %20, ptr %12, align 1, !tbaa !15
  %21 = zext i1 %5 to i8
  store i8 %21, ptr %13, align 1, !tbaa !15
  %22 = zext i1 %6 to i8
  store i8 %22, ptr %14, align 1, !tbaa !15
  br label %23

23:                                               ; preds = %7
  br label %24

24:                                               ; preds = %23
  %25 = load i8, ptr %14, align 1, !tbaa !15, !range !17, !noundef !18
  %26 = trunc i8 %25 to i1
  br i1 %26, label %27, label %33

27:                                               ; preds = %24
  br label %28

28:                                               ; preds = %27
  br label %29

29:                                               ; preds = %28
  %30 = load ptr, ptr %8, align 8, !tbaa !4
  %31 = load ptr, ptr %11, align 8, !tbaa !13
  %32 = load ptr, ptr %10, align 8, !tbaa !11
  call void @je_emap_deregister_boundary(ptr noundef %30, ptr noundef %31, ptr noundef %32)
  br label %36

33:                                               ; preds = %24
  br label %34

34:                                               ; preds = %33
  br label %35

35:                                               ; preds = %34
  br label %36

36:                                               ; preds = %35, %29
  call void @llvm.lifetime.start.p0(i64 8, ptr %15) #6
  %37 = load ptr, ptr %10, align 8, !tbaa !11
  %38 = call i64 @edata_size_get(ptr noundef %37)
  store i64 %38, ptr %15, align 8, !tbaa !19
  call void @llvm.lifetime.start.p0(i64 8, ptr %16) #6
  %39 = load i8, ptr %12, align 1, !tbaa !15, !range !17, !noundef !18
  %40 = trunc i8 %39 to i1
  br i1 %40, label %41, label %47

41:                                               ; preds = %36
  %42 = load i8, ptr %13, align 1, !tbaa !15, !range !17, !noundef !18
  %43 = trunc i8 %42 to i1
  br i1 %43, label %44, label %47

44:                                               ; preds = %41
  %45 = load i64, ptr %15, align 8, !tbaa !19
  %46 = call i64 @san_two_side_guarded_sz(i64 noundef %45)
  br label %50

47:                                               ; preds = %41, %36
  %48 = load i64, ptr %15, align 8, !tbaa !19
  %49 = call i64 @san_one_side_guarded_sz(i64 noundef %48)
  br label %50

50:                                               ; preds = %47, %44
  %51 = phi i64 [ %46, %44 ], [ %49, %47 ]
  store i64 %51, ptr %16, align 8, !tbaa !19
  call void @llvm.lifetime.start.p0(i64 8, ptr %17) #6
  call void @llvm.lifetime.start.p0(i64 8, ptr %18) #6
  call void @llvm.lifetime.start.p0(i64 8, ptr %19) #6
  %52 = load ptr, ptr %10, align 8, !tbaa !11
  %53 = load i64, ptr %15, align 8, !tbaa !19
  %54 = load i8, ptr %12, align 1, !tbaa !15, !range !17, !noundef !18
  %55 = trunc i8 %54 to i1
  %56 = load i8, ptr %13, align 1, !tbaa !15, !range !17, !noundef !18
  %57 = trunc i8 %56 to i1
  call void @san_find_unguarded_addr(ptr noundef %52, ptr noundef %17, ptr noundef %18, ptr noundef %19, i64 noundef %53, i1 noundef zeroext %55, i1 noundef zeroext %57)
  %58 = load ptr, ptr %8, align 8, !tbaa !4
  %59 = load ptr, ptr %9, align 8, !tbaa !9
  %60 = load ptr, ptr %17, align 8, !tbaa !21
  %61 = load ptr, ptr %18, align 8, !tbaa !21
  %62 = call zeroext i1 @ehooks_unguard(ptr noundef %58, ptr noundef %59, ptr noundef %60, ptr noundef %61)
  %63 = load ptr, ptr %10, align 8, !tbaa !11
  %64 = load i64, ptr %16, align 8, !tbaa !19
  call void @edata_size_set(ptr noundef %63, i64 noundef %64)
  %65 = load ptr, ptr %10, align 8, !tbaa !11
  %66 = load ptr, ptr %19, align 8, !tbaa !21
  call void @edata_addr_set(ptr noundef %65, ptr noundef %66)
  %67 = load ptr, ptr %10, align 8, !tbaa !11
  call void @edata_guarded_set(ptr noundef %67, i1 noundef zeroext false)
  %68 = load i8, ptr %14, align 1, !tbaa !15, !range !17, !noundef !18
  %69 = trunc i8 %68 to i1
  br i1 %69, label %70, label %75

70:                                               ; preds = %50
  %71 = load ptr, ptr %8, align 8, !tbaa !4
  %72 = load ptr, ptr %11, align 8, !tbaa !13
  %73 = load ptr, ptr %10, align 8, !tbaa !11
  %74 = call zeroext i1 @je_emap_register_boundary(ptr noundef %71, ptr noundef %72, ptr noundef %73, i32 noundef 232, i1 noundef zeroext false)
  br label %75

75:                                               ; preds = %70, %50
  call void @llvm.lifetime.end.p0(i64 8, ptr %19) #6
  call void @llvm.lifetime.end.p0(i64 8, ptr %18) #6
  call void @llvm.lifetime.end.p0(i64 8, ptr %17) #6
  call void @llvm.lifetime.end.p0(i64 8, ptr %16) #6
  call void @llvm.lifetime.end.p0(i64 8, ptr %15) #6
  ret void
}

; Function Attrs: inlinehint nounwind uwtable
define internal void @emap_assert_not_mapped(ptr noundef %0, ptr noundef %1, ptr noundef %2) #3 {
  %4 = alloca ptr, align 8
  %5 = alloca ptr, align 8
  %6 = alloca ptr, align 8
  store ptr %0, ptr %4, align 8, !tbaa !4
  store ptr %1, ptr %5, align 8, !tbaa !13
  store ptr %2, ptr %6, align 8, !tbaa !11
  ret void
}

; Function Attrs: nounwind uwtable
define hidden void @je_san_unguard_pages_pre_destroy(ptr noundef %0, ptr noundef %1, ptr noundef %2, ptr noundef %3) #0 {
  %5 = alloca ptr, align 8
  %6 = alloca ptr, align 8
  %7 = alloca ptr, align 8
  %8 = alloca ptr, align 8
  store ptr %0, ptr %5, align 8, !tbaa !4
  store ptr %1, ptr %6, align 8, !tbaa !9
  store ptr %2, ptr %7, align 8, !tbaa !11
  store ptr %3, ptr %8, align 8, !tbaa !13
  %9 = load ptr, ptr %5, align 8, !tbaa !4
  %10 = load ptr, ptr %8, align 8, !tbaa !13
  %11 = load ptr, ptr %7, align 8, !tbaa !11
  call void @emap_assert_not_mapped(ptr noundef %9, ptr noundef %10, ptr noundef %11)
  %12 = load ptr, ptr %5, align 8, !tbaa !4
  %13 = load ptr, ptr %6, align 8, !tbaa !9
  %14 = load ptr, ptr %7, align 8, !tbaa !11
  %15 = load ptr, ptr %8, align 8, !tbaa !13
  call void @san_unguard_pages_impl(ptr noundef %12, ptr noundef %13, ptr noundef %14, ptr noundef %15, i1 noundef zeroext false, i1 noundef zeroext true, i1 noundef zeroext false)
  ret void
}