; Function Attrs: nounwind uwtable
define hidden void @je_san_unguard_pages_pre_destroy(ptr noundef readnone captures(none) %0, ptr noundef readonly captures(none) %1, ptr noundef captures(none) %2, ptr noundef readnone captures(none) %3) local_unnamed_addr #0 {
  %5 = getelementptr i8, ptr %2, i64 16
  %.val.i = load i64, ptr %5, align 8, !tbaa !4
  %6 = and i64 %.val.i, -4096
  %7 = getelementptr i8, ptr %2, i64 8
  %.val23.i = load ptr, ptr %7, align 8, !tbaa !7
  %8 = ptrtoint ptr %.val23.i to i64
  %9 = and i64 %8, 4095
  %10 = sub nsw i64 0, %9
  %11 = getelementptr inbounds i8, ptr %.val23.i, i64 %10
  %12 = getelementptr inbounds nuw i8, ptr %1, i64 8
  %13 = load atomic i64, ptr %12 acquire, align 8
  %.not.i = icmp eq i64 %13, ptrtoint (ptr @je_ehooks_default_extent_hooks to i64)
  br i1 %.not.i, label %14, label %san_unguard_pages_impl.exit

14:                                               ; preds = %4
  %15 = getelementptr inbounds nuw i8, ptr %11, i64 %6
  tail call void @je_ehooks_default_unguard_impl(ptr noundef null, ptr noundef %15) #4
  br label %san_unguard_pages_impl.exit

san_unguard_pages_impl.exit:                      ; preds = %4, %14
  %16 = add i64 %6, 4096
  %17 = load i64, ptr %5, align 8, !tbaa !4
  %18 = and i64 %17, 4095
  %19 = or disjoint i64 %18, %16
  store i64 %19, ptr %5, align 8, !tbaa !4
  store ptr %11, ptr %7, align 8, !tbaa !7
  %20 = load i64, ptr %2, align 8, !tbaa !12
  %21 = and i64 %20, -65537
  store i64 %21, ptr %2, align 8, !tbaa !12
  ret void
}